target datalayout = "e-m:e-p270:32:32-p271:32:32-p272:64:64-i64:64-i128:128-f80:128-n8:16:32:64-S128"
target triple = "x86_64-unknown-linux-gnu"

%struct.b3DbvtProxy = type <{ %struct.b3BroadphaseProxy, ptr, [2 x ptr], i32, [4 x i8] }>
%struct.b3BroadphaseProxy = type { ptr, i32, i32, i32, [12 x i8], %class.b3Vector3, %class.b3Vector3 }
%class.b3Vector3 = type { %union.anon }
%union.anon = type { [4 x float] }
%struct.b3DynamicBvhBroadphase = type <{ ptr, [2 x %struct.b3DynamicBvh], [3 x ptr], %class.b3AlignedObjectArray.4, ptr, float, i32, i32, i32, i32, i32, i32, i32, i32, float, i32, i32, i8, i8, i8, [5 x i8] }>
%struct.b3DynamicBvh = type { ptr, ptr, i32, i32, i32, [4 x i8], %class.b3AlignedObjectArray, %class.b3AlignedObjectArray.0 }
%class.b3AlignedObjectArray = type <{ %class.b3AlignedAllocator, [3 x i8], i32, i32, [4 x i8], ptr, i8, [7 x i8] }>
%class.b3AlignedAllocator = type { i8 }
%class.b3AlignedObjectArray.0 = type <{ %class.b3AlignedAllocator.1, [3 x i8], i32, i32, [4 x i8], ptr, i8, [7 x i8] }>
%class.b3AlignedAllocator.1 = type { i8 }
%class.b3AlignedObjectArray.4 = type <{ %class.b3AlignedAllocator.5, [3 x i8], i32, i32, [4 x i8], ptr, i8, [7 x i8] }>
%class.b3AlignedAllocator.5 = type { i8 }

; Function Attrs: mustprogress nounwind uwtable
define linkonce_odr dso_local noundef i32 @_ZNK17b3BroadphaseProxy6getUidEv(ptr noundef nonnull align 16 dereferenceable(64) %this) #3 comdat align 2 {
entry:
  %this.addr = alloca ptr, align 8
  store ptr %this, ptr %this.addr, align 8
  %this1 = load ptr, ptr %this.addr, align 8
  %m_uniqueId = getelementptr inbounds %struct.b3BroadphaseProxy, ptr %this1, i32 0, i32 3
  %0 = load i32, ptr %m_uniqueId, align 16
  ret i32 %0
}

; Function Attrs: mustprogress nounwind uwtable
define internal void @_ZL12b3ListRemoveI11b3DbvtProxyEvPT_RS2_(ptr noundef %item, ptr noundef nonnull align 8 dereferenceable(8) %list) #3 {
entry:
  %item.addr = alloca ptr, align 8
  %list.addr = alloca ptr, align 8
  store ptr %item, ptr %item.addr, align 8
  store ptr %list, ptr %list.addr, align 8
  %0 = load ptr, ptr %item.addr, align 8
  %links = getelementptr inbounds %struct.b3DbvtProxy, ptr %0, i32 0, i32 2
  %arrayidx = getelementptr inbounds [2 x ptr], ptr %links, i64 0, i64 0
  %1 = load ptr, ptr %arrayidx, align 8
  %tobool = icmp ne ptr %1, null
  br i1 %tobool, label %if.then, label %if.else

if.then:                                          ; preds = %entry
  %2 = load ptr, ptr %item.addr, align 8
  %links1 = getelementptr inbounds %struct.b3DbvtProxy, ptr %2, i32 0, i32 2
  %arrayidx2 = getelementptr inbounds [2 x ptr], ptr %links1, i64 0, i64 1
  %3 = load ptr, ptr %arrayidx2, align 8
  %4 = load ptr, ptr %item.addr, align 8
  %links3 = getelementptr inbounds %struct.b3DbvtProxy, ptr %4, i32 0, i32 2
  %arrayidx4 = getelementptr inbounds [2 x ptr], ptr %links3, i64 0, i64 0
  %5 = load ptr, ptr %arrayidx4, align 8
  %links5 = getelementptr inbounds %struct.b3DbvtProxy, ptr %5, i32 0, i32 2
  %arrayidx6 = getelementptr inbounds [2 x ptr], ptr %links5, i64 0, i64 1
  store ptr %3, ptr %arrayidx6, align 8
  br label %if.end

if.else:                                          ; preds = %entry
  %6 = load ptr, ptr %item.addr, align 8
  %links7 = getelementptr inbounds %struct.b3DbvtProxy, ptr %6, i32 0, i32 2
  %arrayidx8 = getelementptr inbounds [2 x ptr], ptr %links7, i64 0, i64 1
  %7 = load ptr, ptr %arrayidx8, align 8
  %8 = load ptr, ptr %list.addr, align 8
  store ptr %7, ptr %8, align 8
  br label %if.end

if.end:                                           ; preds = %if.else, %if.then
  %9 = load ptr, ptr %item.addr, align 8
  %links9 = getelementptr inbounds %struct.b3DbvtProxy, ptr %9, i32 0, i32 2
  %arrayidx10 = getelementptr inbounds [2 x ptr], ptr %links9, i64 0, i64 1
  %10 = load ptr, ptr %arrayidx10, align 8
  %tobool11 = icmp ne ptr %10, null
  br i1 %tobool11, label %if.then12, label %if.end19

if.then12:                                        ; preds = %if.end
  %11 = load ptr, ptr %item.addr, align 8
  %links13 = getelementptr inbounds %struct.b3DbvtProxy, ptr %11, i32 0, i32 2
  %arrayidx14 = getelementptr inbounds [2 x ptr], ptr %links13, i64 0, i64 0
  %12 = load ptr, ptr %arrayidx14, align 8
  %13 = load ptr, ptr %item.addr, align 8
  %links15 = getelementptr inbounds %struct.b3DbvtProxy, ptr %13, i32 0, i32 2
  %arrayidx16 = getelementptr inbounds [2 x ptr], ptr %links15, i64 0, i64 1
  %14 = load ptr, ptr %arrayidx16, align 8
  %links17 = getelementptr inbounds %struct.b3DbvtProxy, ptr %14, i32 0, i32 2
  %arrayidx18 = getelementptr inbounds [2 x ptr], ptr %links17, i64 0, i64 0
  store ptr %12, ptr %arrayidx18, align 8
  br label %if.end19

if.end19:                                         ; preds = %if.then12, %if.end
  ret void
}

; Function Attrs: mustprogress uwtable
define dso_local void @_ZN22b3DynamicBvhBroadphase12destroyProxyEP17b3BroadphaseProxyP12b3Dispatcher(ptr noundef nonnull align 8 dereferenceable(315) %this, ptr noundef %absproxy, ptr noundef %dispatcher) unnamed_addr #0 align 2 {
entry:
  %this.addr = alloca ptr, align 8
  %absproxy.addr = alloca ptr, align 8
  %dispatcher.addr = alloca ptr, align 8
  %proxy = alloca ptr, align 8
  store ptr %this, ptr %this.addr, align 8
  store ptr %absproxy, ptr %absproxy.addr, align 8
  store ptr %dispatcher, ptr %dispatcher.addr, align 8
  %this1 = load ptr, ptr %this.addr, align 8
  %0 = load ptr, ptr %absproxy.addr, align 8
  store ptr %0, ptr %proxy, align 8
  %1 = load ptr, ptr %proxy, align 8
  %stage = getelementptr inbounds %struct.b3DbvtProxy, ptr %1, i32 0, i32 3
  %2 = load i32, ptr %stage, align 8
  %cmp = icmp eq i32 %2, 2
  br i1 %cmp, label %if.then, label %if.else

if.then:                                          ; preds = %entry
  %m_sets = getelementptr inbounds %struct.b3DynamicBvhBroadphase, ptr %this1, i32 0, i32 1
  %arrayidx = getelementptr inbounds [2 x %struct.b3DynamicBvh], ptr %m_sets, i64 0, i64 1
  %3 = load ptr, ptr %proxy, align 8
  %leaf = getelementptr inbounds %struct.b3DbvtProxy, ptr %3, i32 0, i32 1
  %4 = load ptr, ptr %leaf, align 16
  call void @_ZN12b3DynamicBvh6removeEP10b3DbvtNode(ptr noundef nonnull align 8 dereferenceable(96) %arrayidx, ptr noundef %4)
  br label %if.end

if.else:                                          ; preds = %entry
  %m_sets2 = getelementptr inbounds %struct.b3DynamicBvhBroadphase, ptr %this1, i32 0, i32 1
  %arrayidx3 = getelementptr inbounds [2 x %struct.b3DynamicBvh], ptr %m_sets2, i64 0, i64 0
  %5 = load ptr, ptr %proxy, align 8
  %leaf4 = getelementptr inbounds %struct.b3DbvtProxy, ptr %5, i32 0, i32 1
  %6 = load ptr, ptr %leaf4, align 16
  call void @_ZN12b3DynamicBvh6removeEP10b3DbvtNode(ptr noundef nonnull align 8 dereferenceable(96) %arrayidx3, ptr noundef %6)
  br label %if.end

if.end:                                           ; preds = %if.else, %if.then
  %7 = load ptr, ptr %proxy, align 8
  %m_stageRoots = getelementptr inbounds %struct.b3DynamicBvhBroadphase, ptr %this1, i32 0, i32 2
  %8 = load ptr, ptr %proxy, align 8
  %stage5 = getelementptr inbounds %struct.b3DbvtProxy, ptr %8, i32 0, i32 3
  %9 = load i32, ptr %stage5, align 8
  %idxprom = sext i32 %9 to i64
  %arrayidx6 = getelementptr inbounds [3 x ptr], ptr %m_stageRoots, i64 0, i64 %idxprom
  call void @_ZL12b3ListRemoveI11b3DbvtProxyEvPT_RS2_(ptr noundef %7, ptr noundef nonnull align 8 dereferenceable(8) %arrayidx6)
  %m_paircache = getelementptr inbounds %struct.b3DynamicBvhBroadphase, ptr %this1, i32 0, i32 4
  %10 = load ptr, ptr %m_paircache, align 8
  %11 = load ptr, ptr %proxy, align 8
  %call = call noundef i32 @_ZNK17b3BroadphaseProxy6getUidEv(ptr noundef nonnull align 16 dereferenceable(64) %11)
  %12 = load ptr, ptr %dispatcher.addr, align 8
  %vtable = load ptr, ptr %10, align 8
  %vfn = getelementptr inbounds ptr, ptr %vtable, i64 14
  %13 = load ptr, ptr %vfn, align 8
  call void %13(ptr noundef nonnull align 8 dereferenceable(8) %10, i32 noundef %call, ptr noundef %12)
  %m_needcleanup = getelementptr inbounds %struct.b3DynamicBvhBroadphase, ptr %this1, i32 0, i32 19
  store i8 1, ptr %m_needcleanup, align 2
  ret void
}