; Function Attrs: mustprogress uwtable
define dso_local void @_ZN22b3DynamicBvhBroadphase12destroyProxyEP17b3BroadphaseProxyP12b3Dispatcher(ptr noundef nonnull align 8 dereferenceable(315) %this, ptr nocapture noundef readonly %absproxy, ptr noundef %dispatcher) unnamed_addr #0 align 2 {
entry:
  %stage = getelementptr inbounds i8, ptr %absproxy, i64 88
  %0 = load i32, ptr %stage, align 8
  %cmp = icmp eq i32 %0, 2
  %leaf = getelementptr inbounds i8, ptr %absproxy, i64 64
  %1 = load ptr, ptr %leaf, align 16
  %. = select i1 %cmp, i64 104, i64 8
  %m_sets2 = getelementptr inbounds i8, ptr %this, i64 %.
  tail call void @_ZN12b3DynamicBvh6removeEP10b3DbvtNode(ptr noundef nonnull align 8 dereferenceable(96) %m_sets2, ptr noundef %1)
  %m_stageRoots = getelementptr inbounds i8, ptr %this, i64 200
  %2 = load i32, ptr %stage, align 8
  %idxprom = sext i32 %2 to i64
  %arrayidx6 = getelementptr inbounds [3 x ptr], ptr %m_stageRoots, i64 0, i64 %idxprom
  %links.i = getelementptr inbounds i8, ptr %absproxy, i64 72
  %3 = load ptr, ptr %links.i, align 8
  %tobool.not.i = icmp eq ptr %3, null
  %arrayidx8.i = getelementptr inbounds i8, ptr %absproxy, i64 80
  %4 = load ptr, ptr %arrayidx8.i, align 8
  %arrayidx6.i = getelementptr inbounds i8, ptr %3, i64 80
  %list.sink.i = select i1 %tobool.not.i, ptr %arrayidx6, ptr %arrayidx6.i
  store ptr %4, ptr %list.sink.i, align 8
  %tobool11.not.i = icmp eq ptr %4, null
  br i1 %tobool11.not.i, label %_ZL12b3ListRemoveI11b3DbvtProxyEvPT_RS2_.exit, label %if.then12.i

if.then12.i:                                      ; preds = %entry
  %5 = load ptr, ptr %links.i, align 8
  %links17.i = getelementptr inbounds i8, ptr %4, i64 72
  store ptr %5, ptr %links17.i, align 8
  br label %_ZL12b3ListRemoveI11b3DbvtProxyEvPT_RS2_.exit

_ZL12b3ListRemoveI11b3DbvtProxyEvPT_RS2_.exit:    ; preds = %entry, %if.then12.i
  %m_paircache = getelementptr inbounds i8, ptr %this, i64 256
  %6 = load ptr, ptr %m_paircache, align 8
  %m_uniqueId.i = getelementptr inbounds i8, ptr %absproxy, i64 16
  %7 = load i32, ptr %m_uniqueId.i, align 16
  %vtable = load ptr, ptr %6, align 8
  %vfn = getelementptr inbounds i8, ptr %vtable, i64 112
  %8 = load ptr, ptr %vfn, align 8
  tail call void %8(ptr noundef nonnull align 8 dereferenceable(8) %6, i32 noundef %7, ptr noundef %dispatcher)
  %m_needcleanup = getelementptr inbounds i8, ptr %this, i64 314
  store i8 1, ptr %m_needcleanup, align 2
  ret void
}